target datalayout = "e-m:e-p270:32:32-p271:32:32-p272:64:64-i64:64-i128:128-f80:128-n8:16:32:64-S128"
target triple = "x86_64-pc-linux-gnu"

%struct.mbedtls_md_info_t = type { ptr, i32, i8, i8 }
%struct.mbedtls_md_context_t = type { ptr, ptr, ptr }

; Function Attrs: mustprogress uwtable
define hidden i32 @mbedtls_md_update(ptr noundef %0, ptr noundef %1, i64 noundef %2) #1 {
  %4 = alloca i32, align 4
  %5 = alloca ptr, align 8
  %6 = alloca ptr, align 8
  %7 = alloca i64, align 8
  store ptr %0, ptr %5, align 8, !tbaa !10
  store ptr %1, ptr %6, align 8, !tbaa !3
  store i64 %2, ptr %7, align 8, !tbaa !23
  %8 = load ptr, ptr %5, align 8, !tbaa !10
  %9 = icmp eq ptr %8, null
  br i1 %9, label %15, label %10

10:                                               ; preds = %3
  %11 = load ptr, ptr %5, align 8, !tbaa !10
  %12 = getelementptr inbounds nuw %struct.mbedtls_md_context_t, ptr %11, i32 0, i32 0
  %13 = load ptr, ptr %12, align 8, !tbaa !12
  %14 = icmp eq ptr %13, null
  br i1 %14, label %15, label %16

15:                                               ; preds = %10, %3
  store i32 -20736, ptr %4, align 4
  br label %44

16:                                               ; preds = %10
  %17 = load ptr, ptr %5, align 8, !tbaa !10
  %18 = getelementptr inbounds nuw %struct.mbedtls_md_context_t, ptr %17, i32 0, i32 0
  %19 = load ptr, ptr %18, align 8, !tbaa !12
  %20 = getelementptr inbounds nuw %struct.mbedtls_md_info_t, ptr %19, i32 0, i32 1
  %21 = load i32, ptr %20, align 8, !tbaa !16
  switch i32 %21, label %43 [
    i32 2, label %22
    i32 3, label %29
    i32 4, label %36
  ]

22:                                               ; preds = %16
  %23 = load ptr, ptr %5, align 8, !tbaa !10
  %24 = getelementptr inbounds nuw %struct.mbedtls_md_context_t, ptr %23, i32 0, i32 1
  %25 = load ptr, ptr %24, align 8, !tbaa !15
  %26 = load ptr, ptr %6, align 8, !tbaa !3
  %27 = load i64, ptr %7, align 8, !tbaa !23
  %28 = call i32 @mbedtls_sha1_update(ptr noundef %25, ptr noundef %26, i64 noundef %27)
  store i32 %28, ptr %4, align 4
  br label %44

29:                                               ; preds = %16
  %30 = load ptr, ptr %5, align 8, !tbaa !10
  %31 = getelementptr inbounds nuw %struct.mbedtls_md_context_t, ptr %30, i32 0, i32 1
  %32 = load ptr, ptr %31, align 8, !tbaa !15
  %33 = load ptr, ptr %6, align 8, !tbaa !3
  %34 = load i64, ptr %7, align 8, !tbaa !23
  %35 = call i32 @mbedtls_sha256_update(ptr noundef %32, ptr noundef %33, i64 noundef %34)
  store i32 %35, ptr %4, align 4
  br label %44

36:                                               ; preds = %16
  %37 = load ptr, ptr %5, align 8, !tbaa !10
  %38 = getelementptr inbounds nuw %struct.mbedtls_md_context_t, ptr %37, i32 0, i32 1
  %39 = load ptr, ptr %38, align 8, !tbaa !15
  %40 = load ptr, ptr %6, align 8, !tbaa !3
  %41 = load i64, ptr %7, align 8, !tbaa !23
  %42 = call i32 @mbedtls_sha256_update(ptr noundef %39, ptr noundef %40, i64 noundef %41)
  store i32 %42, ptr %4, align 4
  br label %44

43:                                               ; preds = %16
  store i32 -20736, ptr %4, align 4
  br label %44

44:                                               ; preds = %43, %36, %29, %22, %15
  %45 = load i32, ptr %4, align 4
  ret i32 %45
}

; Function Attrs: mustprogress uwtable
define hidden i32 @mbedtls_md_hmac_update(ptr noundef %0, ptr noundef %1, i64 noundef %2) #1 {
  %4 = alloca i32, align 4
  %5 = alloca ptr, align 8
  %6 = alloca ptr, align 8
  %7 = alloca i64, align 8
  store ptr %0, ptr %5, align 8, !tbaa !10
  store ptr %1, ptr %6, align 8, !tbaa !3
  store i64 %2, ptr %7, align 8, !tbaa !23
  %8 = load ptr, ptr %5, align 8, !tbaa !10
  %9 = icmp eq ptr %8, null
  br i1 %9, label %20, label %10

10:                                               ; preds = %3
  %11 = load ptr, ptr %5, align 8, !tbaa !10
  %12 = getelementptr inbounds nuw %struct.mbedtls_md_context_t, ptr %11, i32 0, i32 0
  %13 = load ptr, ptr %12, align 8, !tbaa !12
  %14 = icmp eq ptr %13, null
  br i1 %14, label %20, label %15

15:                                               ; preds = %10
  %16 = load ptr, ptr %5, align 8, !tbaa !10
  %17 = getelementptr inbounds nuw %struct.mbedtls_md_context_t, ptr %16, i32 0, i32 2
  %18 = load ptr, ptr %17, align 8, !tbaa !18
  %19 = icmp eq ptr %18, null
  br i1 %19, label %20, label %21

20:                                               ; preds = %15, %10, %3
  store i32 -20736, ptr %4, align 4
  br label %26

21:                                               ; preds = %15
  %22 = load ptr, ptr %5, align 8, !tbaa !10
  %23 = load ptr, ptr %6, align 8, !tbaa !3
  %24 = load i64, ptr %7, align 8, !tbaa !23
  %25 = call i32 @mbedtls_md_update(ptr noundef %22, ptr noundef %23, i64 noundef %24)
  store i32 %25, ptr %4, align 4
  br label %26

26:                                               ; preds = %21, %20
  %27 = load i32, ptr %4, align 4
  ret i32 %27
}

; Function Attrs: mustprogress nounwind uwtable
define hidden void @mbedtls_md_init(ptr noundef %0) #0 {
  %2 = alloca ptr, align 8
  store ptr %0, ptr %2, align 8, !tbaa !10
  %3 = load ptr, ptr %2, align 8, !tbaa !10
  call void @llvm.memset.p0.i64(ptr align 8 %3, i8 0, i64 24, i1 false)
  ret void
}

; Function Attrs: mustprogress uwtable
define hidden i32 @mbedtls_md_hmac(ptr noundef %0, ptr noundef %1, i64 noundef %2, ptr noundef %3, i64 noundef %4, ptr noundef %5) #1 {
  %7 = alloca i32, align 4
  %8 = alloca ptr, align 8
  %9 = alloca ptr, align 8
  %10 = alloca i64, align 8
  %11 = alloca ptr, align 8
  %12 = alloca i64, align 8
  %13 = alloca ptr, align 8
  %14 = alloca %struct.mbedtls_md_context_t, align 8
  %15 = alloca i32, align 4
  %16 = alloca i32, align 4
  store ptr %0, ptr %8, align 8, !tbaa !20
  store ptr %1, ptr %9, align 8, !tbaa !3
  store i64 %2, ptr %10, align 8, !tbaa !23
  store ptr %3, ptr %11, align 8, !tbaa !3
  store i64 %4, ptr %12, align 8, !tbaa !23
  store ptr %5, ptr %13, align 8, !tbaa !3
  call void @llvm.lifetime.start.p0(i64 24, ptr %14) #9
  call void @llvm.lifetime.start.p0(i64 4, ptr %15) #9
  store i32 -110, ptr %15, align 4, !tbaa !21
  %17 = load ptr, ptr %8, align 8, !tbaa !20
  %18 = icmp eq ptr %17, null
  br i1 %18, label %19, label %20

19:                                               ; preds = %6
  store i32 -20736, ptr %7, align 4
  store i32 1, ptr %16, align 4
  br label %45

20:                                               ; preds = %6
  call void @mbedtls_md_init(ptr noundef %14)
  %21 = load ptr, ptr %8, align 8, !tbaa !20
  %22 = call i32 @mbedtls_md_setup(ptr noundef %14, ptr noundef %21, i32 noundef 1)
  store i32 %22, ptr %15, align 4, !tbaa !21
  %23 = icmp ne i32 %22, 0
  br i1 %23, label %24, label %25

24:                                               ; preds = %20
  br label %43

25:                                               ; preds = %20
  %26 = load ptr, ptr %9, align 8, !tbaa !3
  %27 = load i64, ptr %10, align 8, !tbaa !23
  %28 = call i32 @mbedtls_md_hmac_starts(ptr noundef %14, ptr noundef %26, i64 noundef %27)
  store i32 %28, ptr %15, align 4, !tbaa !21
  %29 = icmp ne i32 %28, 0
  br i1 %29, label %30, label %31

30:                                               ; preds = %25
  br label %43

31:                                               ; preds = %25
  %32 = load ptr, ptr %11, align 8, !tbaa !3
  %33 = load i64, ptr %12, align 8, !tbaa !23
  %34 = call i32 @mbedtls_md_hmac_update(ptr noundef %14, ptr noundef %32, i64 noundef %33)
  store i32 %34, ptr %15, align 4, !tbaa !21
  %35 = icmp ne i32 %34, 0
  br i1 %35, label %36, label %37

36:                                               ; preds = %31
  br label %43

37:                                               ; preds = %31
  %38 = load ptr, ptr %13, align 8, !tbaa !3
  %39 = call i32 @mbedtls_md_hmac_finish(ptr noundef %14, ptr noundef %38)
  store i32 %39, ptr %15, align 4, !tbaa !21
  %40 = icmp ne i32 %39, 0
  br i1 %40, label %41, label %42

41:                                               ; preds = %37
  br label %43

42:                                               ; preds = %37
  br label %43

43:                                               ; preds = %42, %41, %36, %30, %24
  call void @mbedtls_md_free(ptr noundef %14)
  %44 = load i32, ptr %15, align 4, !tbaa !21
  store i32 %44, ptr %7, align 4
  store i32 1, ptr %16, align 4
  br label %45

45:                                               ; preds = %43, %19
  call void @llvm.lifetime.end.p0(i64 4, ptr %15) #9
  call void @llvm.lifetime.end.p0(i64 24, ptr %14) #9
  %46 = load i32, ptr %7, align 4
  ret i32 %46
}